; Function Attrs: nounwind uwtable
define dso_local void @updateCurIncrAofEndOffset() local_unnamed_addr #0 {
  %1 = load i32, ptr getelementptr inbounds nuw (i8, ptr @server, i64 6520), align 8, !tbaa !79
  %.not = icmp eq i32 %1, 1
  br i1 %.not, label %2, label %persistAofManifest.exit

2:                                                ; preds = %0
  %3 = load ptr, ptr getelementptr inbounds nuw (i8, ptr @server, i64 6704), align 8, !tbaa !63
  %.not1 = icmp eq ptr %3, null
  br i1 %.not1, label %4, label %5, !prof !5

4:                                                ; preds = %2
  tail call void @_serverAssert(ptr noundef nonnull @.str.55, ptr noundef nonnull @.str.1, i32 noundef 869) #20
  tail call void @abort() #21
  unreachable

5:                                                ; preds = %2
  %6 = getelementptr inbounds nuw i8, ptr %3, i64 8
  %7 = load ptr, ptr %6, align 8, !tbaa !24
  %8 = getelementptr inbounds nuw i8, ptr %7, i64 40
  %9 = load i64, ptr %8, align 8, !tbaa !73
  %10 = icmp eq i64 %9, 0
  br i1 %10, label %persistAofManifest.exit, label %11

11:                                               ; preds = %5
  %12 = getelementptr inbounds nuw i8, ptr %7, i64 8
  %13 = load ptr, ptr %12, align 8, !tbaa !90
  %14 = getelementptr inbounds nuw i8, ptr %13, i64 16
  %15 = load ptr, ptr %14, align 8, !tbaa !58
  %16 = load i64, ptr getelementptr inbounds nuw (i8, ptr @server, i64 7064), align 8, !tbaa !74
  %17 = getelementptr inbounds nuw i8, ptr %15, i64 32
  store i64 %16, ptr %17, align 8, !tbaa !17
  %18 = getelementptr inbounds nuw i8, ptr %3, i64 40
  store i32 1, ptr %18, align 8, !tbaa !70
  %19 = tail call ptr @getAofManifestAsString(ptr noundef nonnull %3)
  %20 = tail call i32 @writeAofManifestFile(ptr noundef %19)
  tail call void @sdsfree(ptr noundef %19) #20
  %21 = icmp eq i32 %20, 0
  br i1 %21, label %22, label %persistAofManifest.exit

22:                                               ; preds = %11
  store i32 0, ptr %18, align 8, !tbaa !70
  br label %persistAofManifest.exit

persistAofManifest.exit:                          ; preds = %22, %11, %5, %0
  ret void
}